; Function Attrs: mustprogress uwtable
define hidden noundef zeroext i1 @_ZN4cvc58internal4expr18containsAssumptionEPKNS0_9ProofNodeERSt13unordered_mapIS4_bSt4hashIS4_ESt8equal_toIS4_ESaISt4pairIKS4_bEEE(ptr noundef %pn, ptr noundef nonnull align 8 dereferenceable(56) %caMap) local_unnamed_addr #3 personality ptr @__gxx_personality_v0 {
entry:
  %allowed = alloca %"class.std::unordered_set", align 8
  %_M_single_bucket.i.i = getelementptr inbounds i8, ptr %allowed, i64 48
  store ptr %_M_single_bucket.i.i, ptr %allowed, align 8
  %_M_bucket_count.i.i = getelementptr inbounds i8, ptr %allowed, i64 8
  store i64 1, ptr %_M_bucket_count.i.i, align 8
  %_M_before_begin.i.i = getelementptr inbounds i8, ptr %allowed, i64 16
  %_M_rehash_policy.i.i = getelementptr inbounds i8, ptr %allowed, i64 32
  call void @llvm.memset.p0.i64(ptr noundef nonnull align 8 dereferenceable(16) %_M_before_begin.i.i, i8 0, i64 16, i1 false)
  store float 1.000000e+00, ptr %_M_rehash_policy.i.i, align 8
  %_M_next_resize.i.i.i = getelementptr inbounds i8, ptr %allowed, i64 40
  call void @llvm.memset.p0.i64(ptr noundef nonnull align 8 dereferenceable(16) %_M_next_resize.i.i.i, i8 0, i64 16, i1 false)
  %call = invoke noundef zeroext i1 @_ZN4cvc58internal4expr18containsAssumptionEPKNS0_9ProofNodeERSt13unordered_mapIS4_bSt4hashIS4_ESt8equal_toIS4_ESaISt4pairIKS4_bEEERKSt13unordered_setINS0_12NodeTemplateILb1EEES6_ISI_ES8_ISI_ESaISI_EE(ptr noundef %pn, ptr noundef nonnull align 8 dereferenceable(56) %caMap, ptr noundef nonnull align 8 dereferenceable(56) %allowed)
          to label %invoke.cont unwind label %lpad

invoke.cont:                                      ; preds = %entry
  %0 = load ptr, ptr %_M_before_begin.i.i, align 8
  %tobool.not3.i.i.i.i = icmp eq ptr %0, null
  br i1 %tobool.not3.i.i.i.i, label %_ZNSt10_HashtableIN4cvc58internal12NodeTemplateILb1EEES3_SaIS3_ENSt8__detail9_IdentityESt8equal_toIS3_ESt4hashIS3_ENS5_18_Mod_range_hashingENS5_20_Default_ranged_hashENS5_20_Prime_rehash_policyENS5_17_Hashtable_traitsILb1ELb1ELb1EEEE5clearEv.exit.i.i, label %while.body.i.i.i.i

while.body.i.i.i.i:                               ; preds = %invoke.cont, %_ZNSt8__detail16_Hashtable_allocISaINS_10_Hash_nodeIN4cvc58internal12NodeTemplateILb1EEELb1EEEEE18_M_deallocate_nodeEPS6_.exit.i.i.i.i
  %__n.addr.04.i.i.i.i = phi ptr [ %1, %_ZNSt8__detail16_Hashtable_allocISaINS_10_Hash_nodeIN4cvc58internal12NodeTemplateILb1EEELb1EEEEE18_M_deallocate_nodeEPS6_.exit.i.i.i.i ], [ %0, %invoke.cont ]
  %1 = load ptr, ptr %__n.addr.04.i.i.i.i, align 8
  %add.ptr.i.i.i.i.i = getelementptr inbounds i8, ptr %__n.addr.04.i.i.i.i, i64 8
  %2 = load ptr, ptr %add.ptr.i.i.i.i.i, align 8
  %bf.load.i.i.i.i.i.i.i.i.i = load i64, ptr %2, align 8
  %3 = and i64 %bf.load.i.i.i.i.i.i.i.i.i, 1152920405095219200
  %cmp.not.i.i.i.i.i.i.i.i.i = icmp eq i64 %3, 1152920405095219200
  br i1 %cmp.not.i.i.i.i.i.i.i.i.i, label %_ZNSt8__detail16_Hashtable_allocISaINS_10_Hash_nodeIN4cvc58internal12NodeTemplateILb1EEELb1EEEEE18_M_deallocate_nodeEPS6_.exit.i.i.i.i, label %if.then.i.i.i.i.i.i.i.i.i

if.then.i.i.i.i.i.i.i.i.i:                        ; preds = %while.body.i.i.i.i
  %bf.value.i.i.i.i.i.i.i.i.i = add i64 %bf.load.i.i.i.i.i.i.i.i.i, 1152920405095219200
  %bf.shl.i.i.i.i.i.i.i.i.i = and i64 %bf.value.i.i.i.i.i.i.i.i.i, 1152920405095219200
  %bf.clear7.i.i.i.i.i.i.i.i.i = and i64 %bf.load.i.i.i.i.i.i.i.i.i, -1152920405095219201
  %bf.set.i.i.i.i.i.i.i.i.i = or disjoint i64 %bf.shl.i.i.i.i.i.i.i.i.i, %bf.clear7.i.i.i.i.i.i.i.i.i
  store i64 %bf.set.i.i.i.i.i.i.i.i.i, ptr %2, align 8
  %cmp12.i.i.i.i.i.i.i.i.i = icmp eq i64 %bf.shl.i.i.i.i.i.i.i.i.i, 0
  br i1 %cmp12.i.i.i.i.i.i.i.i.i, label %if.then13.i.i.i.i.i.i.i.i.i, label %_ZNSt8__detail16_Hashtable_allocISaINS_10_Hash_nodeIN4cvc58internal12NodeTemplateILb1EEELb1EEEEE18_M_deallocate_nodeEPS6_.exit.i.i.i.i

if.then13.i.i.i.i.i.i.i.i.i:                      ; preds = %if.then.i.i.i.i.i.i.i.i.i
  invoke void @_ZN4cvc58internal4expr9NodeValue15markForDeletionEv(ptr noundef nonnull align 8 dereferenceable(16) %2)
          to label %_ZNSt8__detail16_Hashtable_allocISaINS_10_Hash_nodeIN4cvc58internal12NodeTemplateILb1EEELb1EEEEE18_M_deallocate_nodeEPS6_.exit.i.i.i.i unwind label %terminate.lpad.i.i.i.i.i.i.i.i

terminate.lpad.i.i.i.i.i.i.i.i:                   ; preds = %if.then13.i.i.i.i.i.i.i.i.i
  %4 = landingpad { ptr, i32 }
          catch ptr null
  %5 = extractvalue { ptr, i32 } %4, 0
  call void @__clang_call_terminate(ptr %5) #23
  unreachable

_ZNSt8__detail16_Hashtable_allocISaINS_10_Hash_nodeIN4cvc58internal12NodeTemplateILb1EEELb1EEEEE18_M_deallocate_nodeEPS6_.exit.i.i.i.i: ; preds = %if.then13.i.i.i.i.i.i.i.i.i, %if.then.i.i.i.i.i.i.i.i.i, %while.body.i.i.i.i
  call void @_ZdlPv(ptr noundef nonnull %__n.addr.04.i.i.i.i) #20
  %tobool.not.i.i.i.i = icmp eq ptr %1, null
  br i1 %tobool.not.i.i.i.i, label %_ZNSt10_HashtableIN4cvc58internal12NodeTemplateILb1EEES3_SaIS3_ENSt8__detail9_IdentityESt8equal_toIS3_ESt4hashIS3_ENS5_18_Mod_range_hashingENS5_20_Default_ranged_hashENS5_20_Prime_rehash_policyENS5_17_Hashtable_traitsILb1ELb1ELb1EEEE5clearEv.exit.i.i, label %while.body.i.i.i.i, !llvm.loop !33

_ZNSt10_HashtableIN4cvc58internal12NodeTemplateILb1EEES3_SaIS3_ENSt8__detail9_IdentityESt8equal_toIS3_ESt4hashIS3_ENS5_18_Mod_range_hashingENS5_20_Default_ranged_hashENS5_20_Prime_rehash_policyENS5_17_Hashtable_traitsILb1ELb1ELb1EEEE5clearEv.exit.i.i: ; preds = %_ZNSt8__detail16_Hashtable_allocISaINS_10_Hash_nodeIN4cvc58internal12NodeTemplateILb1EEELb1EEEEE18_M_deallocate_nodeEPS6_.exit.i.i.i.i, %invoke.cont
  %6 = load ptr, ptr %allowed, align 8
  %7 = load i64, ptr %_M_bucket_count.i.i, align 8
  %mul.i.i.i = shl i64 %7, 3
  call void @llvm.memset.p0.i64(ptr align 8 %6, i8 0, i64 %mul.i.i.i, i1 false)
  call void @llvm.memset.p0.i64(ptr noundef nonnull align 8 dereferenceable(16) %_M_before_begin.i.i, i8 0, i64 16, i1 false)
  %8 = load ptr, ptr %allowed, align 8
  %cmp.i.i.i.i.i = icmp eq ptr %_M_single_bucket.i.i, %8
  br i1 %cmp.i.i.i.i.i, label %_ZNSt13unordered_setIN4cvc58internal12NodeTemplateILb1EEESt4hashIS3_ESt8equal_toIS3_ESaIS3_EED2Ev.exit, label %if.end.i.i.i.i

if.end.i.i.i.i:                                   ; preds = %_ZNSt10_HashtableIN4cvc58internal12NodeTemplateILb1EEES3_SaIS3_ENSt8__detail9_IdentityESt8equal_toIS3_ESt4hashIS3_ENS5_18_Mod_range_hashingENS5_20_Default_ranged_hashENS5_20_Prime_rehash_policyENS5_17_Hashtable_traitsILb1ELb1ELb1EEEE5clearEv.exit.i.i
  call void @_ZdlPv(ptr noundef %8) #20
  br label %_ZNSt13unordered_setIN4cvc58internal12NodeTemplateILb1EEESt4hashIS3_ESt8equal_toIS3_ESaIS3_EED2Ev.exit

_ZNSt13unordered_setIN4cvc58internal12NodeTemplateILb1EEESt4hashIS3_ESt8equal_toIS3_ESaIS3_EED2Ev.exit: ; preds = %_ZNSt10_HashtableIN4cvc58internal12NodeTemplateILb1EEES3_SaIS3_ENSt8__detail9_IdentityESt8equal_toIS3_ESt4hashIS3_ENS5_18_Mod_range_hashingENS5_20_Default_ranged_hashENS5_20_Prime_rehash_policyENS5_17_Hashtable_traitsILb1ELb1ELb1EEEE5clearEv.exit.i.i, %if.end.i.i.i.i
  ret i1 %call

lpad:                                             ; preds = %entry
  %9 = landingpad { ptr, i32 }
          cleanup
  call void @_ZNSt13unordered_setIN4cvc58internal12NodeTemplateILb1EEESt4hashIS3_ESt8equal_toIS3_ESaIS3_EED2Ev(ptr noundef nonnull align 8 dereferenceable(56) %allowed) #21
  resume { ptr, i32 } %9
}